target datalayout = "e-m:e-p270:32:32-p271:32:32-p272:64:64-i64:64-i128:128-f80:128-n8:16:32:64-S128"
target triple = "x86_64-pc-linux-gnu"

%"class.grpc_core::RefCount" = type { %"struct.std::atomic" }
%"struct.std::atomic" = type { %"struct.std::__atomic_base" }
%"struct.std::__atomic_base" = type { i64 }
%"class.grpc_core::InternallyRefCounted" = type { %"class.grpc_core::Orphanable", %"class.grpc_core::RefCount" }
%"class.grpc_core::Orphanable" = type { ptr }
%"class.grpc_core::DebugLocation" = type { i8 }
%"class.grpc_core::RefCountedPtr.302" = type { ptr }
%"class.grpc_core::LoadBalancingPolicy::ParentOwningDelegatingChannelControlHelper" = type { %"class.grpc_core::LoadBalancingPolicy::DelegatingChannelControlHelper", %"class.grpc_core::RefCountedPtr.302" }
%"class.grpc_core::LoadBalancingPolicy::DelegatingChannelControlHelper" = type { %"class.grpc_core::LoadBalancingPolicy::ChannelControlHelper" }
%"class.grpc_core::LoadBalancingPolicy::ChannelControlHelper" = type { ptr }

@.str.69 = private unnamed_addr constant [7 x i8] c"Helper\00", align 1
@.str.72 = private unnamed_addr constant [131 x i8] c"generated/home/dtcxzyw/WorkSpace/Projects/compilers/llvm-opt-benchmark/bench/grpc/grpc/src/core/load_balancing/delegating_helper.h\00", align 1

; Function Attrs: alwaysinline mustprogress nounwind uwtable
define linkonce_odr noundef i64 @_ZNSt13__atomic_baseIlE9fetch_subElSt12memory_order(ptr noundef nonnull align 8 dereferenceable(8) %0, i64 noundef %1, i32 noundef %2) #9 comdat align 2 {
  %4 = alloca ptr, align 8
  %5 = alloca i64, align 8
  %6 = alloca i32, align 4
  %7 = alloca i64, align 8
  %8 = alloca i64, align 8
  store ptr %0, ptr %4, align 8, !tbaa !408
  store i64 %1, ptr %5, align 8, !tbaa !72
  store i32 %2, ptr %6, align 4, !tbaa !386
  %9 = load ptr, ptr %4, align 8
  %10 = getelementptr inbounds nuw %"struct.std::__atomic_base", ptr %9, i32 0, i32 0
  %11 = load i32, ptr %6, align 4, !tbaa !386
  %12 = load i64, ptr %5, align 8, !tbaa !72
  store i64 %12, ptr %7, align 8, !tbaa !72
  switch i32 %11, label %13 [
    i32 1, label %16
    i32 2, label %16
    i32 3, label %19
    i32 4, label %22
    i32 5, label %25
  ]

13:                                               ; preds = %3
  %14 = load i64, ptr %7, align 8
  %15 = atomicrmw sub ptr %10, i64 %14 monotonic, align 8
  store i64 %15, ptr %8, align 8
  br label %28

16:                                               ; preds = %3, %3
  %17 = load i64, ptr %7, align 8
  %18 = atomicrmw sub ptr %10, i64 %17 acquire, align 8
  store i64 %18, ptr %8, align 8
  br label %28

19:                                               ; preds = %3
  %20 = load i64, ptr %7, align 8
  %21 = atomicrmw sub ptr %10, i64 %20 release, align 8
  store i64 %21, ptr %8, align 8
  br label %28

22:                                               ; preds = %3
  %23 = load i64, ptr %7, align 8
  %24 = atomicrmw sub ptr %10, i64 %23 acq_rel, align 8
  store i64 %24, ptr %8, align 8
  br label %28

25:                                               ; preds = %3
  %26 = load i64, ptr %7, align 8
  %27 = atomicrmw sub ptr %10, i64 %26 seq_cst, align 8
  store i64 %27, ptr %8, align 8
  br label %28

28:                                               ; preds = %25, %22, %19, %16, %13
  %29 = load i64, ptr %8, align 8, !tbaa !72
  ret i64 %29
}

; Function Attrs: mustprogress nounwind uwtable
define linkonce_odr noundef zeroext i1 @_ZN9grpc_core8RefCount5UnrefEv(ptr noundef nonnull align 8 dereferenceable(8) %0) #5 comdat align 2 {
  %2 = alloca ptr, align 8
  %3 = alloca i64, align 8
  store ptr %0, ptr %2, align 8, !tbaa !404
  %4 = load ptr, ptr %2, align 8
  call void @llvm.lifetime.start.p0(i64 8, ptr %3) #3
  %5 = getelementptr inbounds nuw %"class.grpc_core::RefCount", ptr %4, i32 0, i32 0
  %6 = call noundef i64 @_ZNSt13__atomic_baseIlE9fetch_subElSt12memory_order(ptr noundef nonnull align 8 dereferenceable(8) %5, i64 noundef 1, i32 noundef 4) #3
  store i64 %6, ptr %3, align 8, !tbaa !72
  %7 = load i64, ptr %3, align 8, !tbaa !72
  %8 = icmp eq i64 %7, 1
  call void @llvm.lifetime.end.p0(i64 8, ptr %3) #3
  ret i1 %8
}

; Function Attrs: mustprogress nounwind uwtable
define linkonce_odr void @_ZNK9grpc_core11UnrefDeleteclINS_19LoadBalancingPolicyEEEvPT_(ptr noundef nonnull align 1 dereferenceable(1) %0, ptr noundef %1) #5 comdat align 2 {
  %3 = alloca ptr, align 8
  %4 = alloca ptr, align 8
  store ptr %0, ptr %3, align 8, !tbaa !406
  store ptr %1, ptr %4, align 8, !tbaa !540
  %5 = load ptr, ptr %4, align 8, !tbaa !540
  %6 = icmp eq ptr %5, null
  br i1 %6, label %11, label %7

7:                                                ; preds = %2
  %8 = load ptr, ptr %5, align 8, !tbaa !50
  %9 = getelementptr inbounds ptr, ptr %8, i64 2
  %10 = load ptr, ptr %9, align 8
  call void %10(ptr noundef nonnull align 8 dereferenceable(56) %5) #3
  br label %11

11:                                               ; preds = %7, %2
  ret void
}

; Function Attrs: mustprogress nounwind uwtable
define linkonce_odr noundef zeroext i1 @_ZN9grpc_core8RefCount5UnrefERKNS_13DebugLocationEPKc(ptr noundef nonnull align 8 dereferenceable(8) %0, ptr noundef nonnull align 1 dereferenceable(1) %1, ptr noundef %2) #5 comdat align 2 {
  %4 = alloca ptr, align 8
  %5 = alloca ptr, align 8
  %6 = alloca ptr, align 8
  %7 = alloca i64, align 8
  store ptr %0, ptr %4, align 8, !tbaa !404
  store ptr %1, ptr %5, align 8, !tbaa !727
  store ptr %2, ptr %6, align 8, !tbaa !26
  %8 = load ptr, ptr %4, align 8
  call void @llvm.lifetime.start.p0(i64 8, ptr %7) #3
  %9 = getelementptr inbounds nuw %"class.grpc_core::RefCount", ptr %8, i32 0, i32 0
  %10 = call noundef i64 @_ZNSt13__atomic_baseIlE9fetch_subElSt12memory_order(ptr noundef nonnull align 8 dereferenceable(8) %9, i64 noundef 1, i32 noundef 4) #3
  store i64 %10, ptr %7, align 8, !tbaa !72
  %11 = load i64, ptr %7, align 8, !tbaa !72
  %12 = icmp eq i64 %11, 1
  call void @llvm.lifetime.end.p0(i64 8, ptr %7) #3
  ret i1 %12
}

; Function Attrs: inlinehint mustprogress nounwind uwtable
define linkonce_odr noundef ptr @_ZSt10__exchangeIPN9grpc_core19LoadBalancingPolicyERS2_ET_RS4_OT0_(ptr noundef nonnull align 8 dereferenceable(8) %0, ptr noundef nonnull align 8 dereferenceable(8) %1) #11 comdat {
  %3 = alloca ptr, align 8
  %4 = alloca ptr, align 8
  %5 = alloca ptr, align 8
  store ptr %0, ptr %3, align 8, !tbaa !563
  store ptr %1, ptr %4, align 8, !tbaa !563
  call void @llvm.lifetime.start.p0(i64 8, ptr %5) #3
  %6 = load ptr, ptr %3, align 8, !tbaa !563
  %7 = load ptr, ptr %6, align 8, !tbaa !540
  store ptr %7, ptr %5, align 8, !tbaa !540
  %8 = load ptr, ptr %4, align 8, !tbaa !563
  %9 = load ptr, ptr %8, align 8, !tbaa !540
  %10 = load ptr, ptr %3, align 8, !tbaa !563
  store ptr %9, ptr %10, align 8, !tbaa !540
  %11 = load ptr, ptr %5, align 8, !tbaa !540
  call void @llvm.lifetime.end.p0(i64 8, ptr %5) #3
  ret ptr %11
}

; Function Attrs: mustprogress uwtable
define linkonce_odr void @_ZN9grpc_core20InternallyRefCountedINS_19LoadBalancingPolicyENS_11UnrefDeleteEE5UnrefEv(ptr noundef nonnull align 8 dereferenceable(16) %0) #4 comdat align 2 {
  %2 = alloca ptr, align 8
  store ptr %0, ptr %2, align 8, !tbaa !805
  %3 = load ptr, ptr %2, align 8
  %4 = getelementptr inbounds nuw %"class.grpc_core::InternallyRefCounted", ptr %3, i32 0, i32 1
  %5 = call noundef zeroext i1 @_ZN9grpc_core8RefCount5UnrefEv(ptr noundef nonnull align 8 dereferenceable(8) %4)
  %6 = zext i1 %5 to i64
  %7 = call i64 @llvm.expect.i64(i64 %6, i64 0)
  %8 = icmp ne i64 %7, 0
  br i1 %8, label %9, label %10

9:                                                ; preds = %1
  call void @_ZNK9grpc_core11UnrefDeleteclINS_19LoadBalancingPolicyEEEvPT_(ptr noundef nonnull align 1 dereferenceable(1) %3, ptr noundef %3)
  br label %10

10:                                               ; preds = %9, %1
  ret void
}

; Function Attrs: mustprogress nounwind uwtable
define linkonce_odr void @_ZN9grpc_core20InternallyRefCountedINS_19LoadBalancingPolicyENS_11UnrefDeleteEE5UnrefERKNS_13DebugLocationEPKc(ptr noundef nonnull align 8 dereferenceable(16) %0, ptr noundef nonnull align 1 dereferenceable(1) %1, ptr noundef %2) #5 comdat align 2 {
  %4 = alloca ptr, align 8
  %5 = alloca ptr, align 8
  %6 = alloca ptr, align 8
  store ptr %0, ptr %4, align 8, !tbaa !805
  store ptr %1, ptr %5, align 8, !tbaa !727
  store ptr %2, ptr %6, align 8, !tbaa !26
  %7 = load ptr, ptr %4, align 8
  %8 = getelementptr inbounds nuw %"class.grpc_core::InternallyRefCounted", ptr %7, i32 0, i32 1
  %9 = load ptr, ptr %5, align 8, !tbaa !727
  %10 = load ptr, ptr %6, align 8, !tbaa !26
  %11 = call noundef zeroext i1 @_ZN9grpc_core8RefCount5UnrefERKNS_13DebugLocationEPKc(ptr noundef nonnull align 8 dereferenceable(8) %8, ptr noundef nonnull align 1 dereferenceable(1) %9, ptr noundef %10)
  %12 = zext i1 %11 to i64
  %13 = call i64 @llvm.expect.i64(i64 %12, i64 0)
  %14 = icmp ne i64 %13, 0
  br i1 %14, label %15, label %16

15:                                               ; preds = %3
  call void @_ZNK9grpc_core11UnrefDeleteclINS_19LoadBalancingPolicyEEEvPT_(ptr noundef nonnull align 1 dereferenceable(1) %7, ptr noundef %7)
  br label %16

16:                                               ; preds = %15, %3
  ret void
}

; Function Attrs: inlinehint mustprogress nounwind uwtable
define linkonce_odr noundef ptr @_ZSt8exchangeIPN9grpc_core19LoadBalancingPolicyERS2_ET_RS4_OT0_(ptr noundef nonnull align 8 dereferenceable(8) %0, ptr noundef nonnull align 8 dereferenceable(8) %1) #11 comdat personality ptr @__gxx_personality_v0 {
  %3 = alloca ptr, align 8
  %4 = alloca ptr, align 8
  store ptr %0, ptr %3, align 8, !tbaa !563
  store ptr %1, ptr %4, align 8, !tbaa !563
  %5 = load ptr, ptr %3, align 8, !tbaa !563
  %6 = load ptr, ptr %4, align 8, !tbaa !563
  %7 = invoke noundef ptr @_ZSt10__exchangeIPN9grpc_core19LoadBalancingPolicyERS2_ET_RS4_OT0_(ptr noundef nonnull align 8 dereferenceable(8) %5, ptr noundef nonnull align 8 dereferenceable(8) %6)
          to label %8 unwind label %9

8:                                                ; preds = %2
  ret ptr %7

9:                                                ; preds = %2
  %10 = landingpad { ptr, i32 }
          catch ptr null
  %11 = extractvalue { ptr, i32 } %10, 0
  call void @__clang_call_terminate(ptr %11) #29
  unreachable
}

; Function Attrs: noinline noreturn nounwind uwtable
define linkonce_odr hidden void @__clang_call_terminate(ptr noundef %0) #13 comdat {
  %2 = call ptr @__cxa_begin_catch(ptr %0) #3
  call void @_ZSt9terminatev() #29
  unreachable
}

; Function Attrs: mustprogress nounwind uwtable
define linkonce_odr void @_ZN9grpc_core19LoadBalancingPolicy20ChannelControlHelperD2Ev(ptr noundef nonnull align 8 dereferenceable(8) %0) unnamed_addr #5 comdat align 2 {
  %2 = alloca ptr, align 8
  store ptr %0, ptr %2, align 8, !tbaa !520
  ret void
}

; Function Attrs: mustprogress nounwind uwtable
define linkonce_odr void @_ZN9grpc_core13RefCountedPtrINS_19LoadBalancingPolicyEED2Ev(ptr noundef nonnull align 8 dereferenceable(8) %0) unnamed_addr #5 comdat align 2 personality ptr @__gxx_personality_v0 {
  %2 = alloca ptr, align 8
  store ptr %0, ptr %2, align 8, !tbaa !731
  %3 = load ptr, ptr %2, align 8
  %4 = getelementptr inbounds nuw %"class.grpc_core::RefCountedPtr.302", ptr %3, i32 0, i32 0
  %5 = load ptr, ptr %4, align 8, !tbaa !733
  %6 = icmp ne ptr %5, null
  br i1 %6, label %7, label %11

7:                                                ; preds = %1
  %8 = getelementptr inbounds nuw %"class.grpc_core::RefCountedPtr.302", ptr %3, i32 0, i32 0
  %9 = load ptr, ptr %8, align 8, !tbaa !733
  invoke void @_ZN9grpc_core20InternallyRefCountedINS_19LoadBalancingPolicyENS_11UnrefDeleteEE5UnrefEv(ptr noundef nonnull align 8 dereferenceable(16) %9)
          to label %10 unwind label %12

10:                                               ; preds = %7
  br label %11

11:                                               ; preds = %10, %1
  ret void

12:                                               ; preds = %7
  %13 = landingpad { ptr, i32 }
          catch ptr null
  %14 = extractvalue { ptr, i32 } %13, 0
  call void @__clang_call_terminate(ptr %14) #29
  unreachable
}

; Function Attrs: mustprogress uwtable
define linkonce_odr void @_ZN9grpc_core13RefCountedPtrINS_19LoadBalancingPolicyEE5resetERKNS_13DebugLocationEPKcPS1_(ptr noundef nonnull align 8 dereferenceable(8) %0, ptr noundef nonnull align 1 dereferenceable(1) %1, ptr noundef %2, ptr noundef %3) #4 comdat align 2 {
  %5 = alloca ptr, align 8
  %6 = alloca ptr, align 8
  %7 = alloca ptr, align 8
  %8 = alloca ptr, align 8
  %9 = alloca ptr, align 8
  store ptr %0, ptr %5, align 8, !tbaa !731
  store ptr %1, ptr %6, align 8, !tbaa !727
  store ptr %2, ptr %7, align 8, !tbaa !26
  store ptr %3, ptr %8, align 8, !tbaa !540
  %10 = load ptr, ptr %5, align 8
  call void @llvm.lifetime.start.p0(i64 8, ptr %9) #3
  %11 = getelementptr inbounds nuw %"class.grpc_core::RefCountedPtr.302", ptr %10, i32 0, i32 0
  %12 = call noundef ptr @_ZSt8exchangeIPN9grpc_core19LoadBalancingPolicyERS2_ET_RS4_OT0_(ptr noundef nonnull align 8 dereferenceable(8) %11, ptr noundef nonnull align 8 dereferenceable(8) %8) #3
  store ptr %12, ptr %9, align 8, !tbaa !540
  %13 = load ptr, ptr %9, align 8, !tbaa !540
  %14 = icmp ne ptr %13, null
  br i1 %14, label %15, label %19

15:                                               ; preds = %4
  %16 = load ptr, ptr %9, align 8, !tbaa !540
  %17 = load ptr, ptr %6, align 8, !tbaa !727
  %18 = load ptr, ptr %7, align 8, !tbaa !26
  call void @_ZN9grpc_core20InternallyRefCountedINS_19LoadBalancingPolicyENS_11UnrefDeleteEE5UnrefERKNS_13DebugLocationEPKc(ptr noundef nonnull align 8 dereferenceable(16) %16, ptr noundef nonnull align 1 dereferenceable(1) %17, ptr noundef %18)
  br label %19

19:                                               ; preds = %15, %4
  call void @llvm.lifetime.end.p0(i64 8, ptr %9) #3
  ret void
}

; Function Attrs: mustprogress nounwind uwtable
define linkonce_odr void @_ZN9grpc_core13DebugLocationC2EPKci(ptr noundef nonnull align 1 dereferenceable(1) %0, ptr noundef %1, i32 noundef %2) unnamed_addr #5 comdat align 2 {
  %4 = alloca ptr, align 8
  %5 = alloca ptr, align 8
  %6 = alloca i32, align 4
  store ptr %0, ptr %4, align 8, !tbaa !727
  store ptr %1, ptr %5, align 8, !tbaa !26
  store i32 %2, ptr %6, align 4, !tbaa !28
  ret void
}

; Function Attrs: mustprogress nounwind uwtable
define internal void @_ZN9grpc_core19LoadBalancingPolicy42ParentOwningDelegatingChannelControlHelperINS_12_GLOBAL__N_16GrpcLbEED2Ev(ptr noundef nonnull align 8 dereferenceable(16) %0) unnamed_addr #5 align 2 personality ptr @__gxx_personality_v0 {
  %2 = alloca ptr, align 8
  %3 = alloca %"class.grpc_core::DebugLocation", align 1
  store ptr %0, ptr %2, align 8, !tbaa !1131
  %4 = load ptr, ptr %2, align 8
  store ptr getelementptr inbounds inrange(-16, 104) ({ [15 x ptr] }, ptr @_ZTVN9grpc_core19LoadBalancingPolicy42ParentOwningDelegatingChannelControlHelperINS_12_GLOBAL__N_16GrpcLbEEE, i32 0, i32 0, i32 2), ptr %4, align 8, !tbaa !50
  %5 = getelementptr inbounds nuw %"class.grpc_core::LoadBalancingPolicy::ParentOwningDelegatingChannelControlHelper", ptr %4, i32 0, i32 1
  call void @llvm.lifetime.start.p0(i64 1, ptr %3) #3
  invoke void @_ZN9grpc_core13DebugLocationC2EPKci(ptr noundef nonnull align 1 dereferenceable(1) %3, ptr noundef @.str.72, i32 noundef 104)
          to label %6 unwind label %9

6:                                                ; preds = %1
  invoke void @_ZN9grpc_core13RefCountedPtrINS_19LoadBalancingPolicyEE5resetERKNS_13DebugLocationEPKcPS1_(ptr noundef nonnull align 8 dereferenceable(8) %5, ptr noundef nonnull align 1 dereferenceable(1) %3, ptr noundef @.str.69, ptr noundef null)
          to label %7 unwind label %9

7:                                                ; preds = %6
  call void @llvm.lifetime.end.p0(i64 1, ptr %3) #3
  %8 = getelementptr inbounds nuw %"class.grpc_core::LoadBalancingPolicy::ParentOwningDelegatingChannelControlHelper", ptr %4, i32 0, i32 1
  call void @_ZN9grpc_core13RefCountedPtrINS_19LoadBalancingPolicyEED2Ev(ptr noundef nonnull align 8 dereferenceable(8) %8) #3
  call void @_ZN9grpc_core19LoadBalancingPolicy20ChannelControlHelperD2Ev(ptr noundef nonnull align 8 dereferenceable(8) %4) #3
  ret void

9:                                                ; preds = %6, %1
  %10 = landingpad { ptr, i32 }
          catch ptr null
  %11 = extractvalue { ptr, i32 } %10, 0
  call void @__clang_call_terminate(ptr %11) #29
  unreachable
}

; Function Attrs: mustprogress nounwind uwtable
define internal void @_ZN9grpc_core19LoadBalancingPolicy42ParentOwningDelegatingChannelControlHelperINS_12_GLOBAL__N_16GrpcLbEED0Ev(ptr noundef nonnull align 8 dereferenceable(16) %0) unnamed_addr #5 align 2 {
  %2 = alloca ptr, align 8
  store ptr %0, ptr %2, align 8, !tbaa !1131
  %3 = load ptr, ptr %2, align 8
  call void @_ZN9grpc_core19LoadBalancingPolicy42ParentOwningDelegatingChannelControlHelperINS_12_GLOBAL__N_16GrpcLbEED2Ev(ptr noundef nonnull align 8 dereferenceable(16) %3) #3
  call void @_ZdlPvm(ptr noundef %3, i64 noundef 16) #31
  ret void
}